Certificate:
    Data:
        Version: 3 (0x2)
        Serial Number: 2 (0x2)
    Signature Algorithm: sha256WithRSAEncryption
        Issuer: C=CN, ST=ShangHai, L=ShangHai, O=Zts Inc. , OU=R & D, CN=Zts Self-signed Authority
        Validity
            Not Before: Jan 21 09:48:35 2019 GMT
            Not After : Jan 18 09:48:35 2029 GMT
        Subject: C=CN, ST=ShangHai, O=Zts Inc. , OU=R & D, CN=Api Client
        Subject Public Key Info:
            Public Key Algorithm: rsaEncryption
                Public-Key: (2048 bit)
                Modulus:
                    00:bb:9e:2e:79:cd:74:ac:0c:d7:cf:e2:a5:b5:7f:
                    fa:8a:8f:29:76:55:dd:9f:59:37:ff:42:6e:0a:ba:
                    65:9f:89:ed:cf:e5:53:36:eb:2b:3e:7a:ff:f7:5f:
                    38:2d:a3:95:b0:00:8d:04:4d:4e:af:9c:5f:48:b7:
                    5f:ee:82:a8:5e:e1:99:ea:6b:28:3d:c5:54:f9:b4:
                    69:fd:87:d1:29:33:b4:e2:b9:19:6d:4e:91:3c:3b:
                    0c:14:d7:d7:7c:df:b2:68:54:93:fc:16:c3:f1:b8:
                    9f:c1:7f:c3:80:81:ad:9c:5f:8a:ab:fc:02:3c:b7:
                    c7:ed:2b:fe:31:99:7e:01:d5:70:44:bd:29:b1:e8:
                    ff:a5:6c:d6:be:79:a1:5f:74:8b:df:18:ee:c1:7a:
                    ec:e1:9a:1c:e4:e8:61:24:5d:6d:50:7c:f4:aa:95:
                    44:88:ad:3e:68:cc:d6:fe:90:c6:e9:96:60:cb:77:
                    e7:d7:40:bc:11:b2:f9:b0:08:bf:60:82:0c:59:3e:
                    44:01:e9:47:ae:fe:dc:d0:93:35:e7:0c:fa:4d:74:
                    6e:4a:4c:fc:42:31:7f:84:b7:59:b0:91:e3:c7:48:
                    e0:5e:78:fa:24:92:44:8e:fe:92:75:44:2f:24:8d:
                    9c:47:65:99:9c:47:96:9b:dc:bc:3f:31:2e:1e:5d:
                    83:b7
                Exponent: 65537 (0x10001)
        X509v3 extensions:
            X509v3 Basic Constraints: 
                CA:FALSE
            Netscape Comment: 
                OpenSSL Generated Certificate
            X509v3 Subject Key Identifier: 
                B0:1A:38:30:67:AB:C5:6F:F5:3A:AE:07:6D:90:05:BD:84:BF:16:09
            X509v3 Authority Key Identifier: 
                DirName:/C=CN/ST=ShangHai/L=ShangHai/O=Zts Inc. /OU=R & D/CN=Zts Self-signed Authority
                serial:EF:F9:47:1A:C1:DB:14:F6

    Signature Algorithm: sha256WithRSAEncryption
         14:3e:61:2d:65:fb:5f:4a:ad:5d:90:2a:17:fa:91:6e:e6:73:
         a7:64:bb:a9:07:e5:1b:30:ba:cf:11:fa:7d:cc:ee:eb:3f:d6:
         25:5d:33:4e:3f:cf:eb:55:29:07:6d:9e:7f:ce:f6:f0:e1:aa:
         92:8b:43:c3:35:3b:6c:a2:33:6d:c3:a7:9e:a7:f8:4b:fc:1e:
         bc:65:a9:e7:81:40:96:99:90:93:a7:27:01:b7:ce:93:5e:99:
         25:d3:3c:67:de:05:3a:80:8d:fb:b4:90:82:95:25:b8:67:e5:
         ff:01:f4:29:c7:cc:b1:0f:c5:a9:8d:b4:d8:ae:b8:b9:07:f6:
         6d:52:42:df:73:05:33:57:91:bb:b3:ba:1f:ea:5c:24:bf:c8:
         93:a5:19:61:36:71:b0:70:08:2c:09:85:58:06:59:1c:ac:86:
         a6:26:8a:6e:9e:b8:3f:fc:10:a9:30:2b:30:9c:d0:bd:36:21:
         f2:2d:9f:34:97:e5:79:7d:d6:86:a6:a9:ac:50:04:60:1a:6b:
         46:68:4c:2c:40:0f:36:f5:fc:4b:f7:79:0d:57:b4:c2:e0:b9:
         83:a6:35:e3:f8:80:8b:3f:d2:df:e4:5f:73:3a:60:eb:c2:5c:
         ee:dd:65:67:6f:99:2f:80:25:5b:9f:93:ec:50:8c:b9:5a:da:
         db:8c:d4:c8
-----BEGIN CERTIFICATE-----
MIIERTCCAy2gAwIBAgIBAjANBgkqhkiG9w0BAQsFADB7MQswCQYDVQQGEwJDTjER
MA8GA1UECAwIU2hhbmdIYWkxETAPBgNVBAcMCFNoYW5nSGFpMRIwEAYDVQQKDAla
dHMgSW5jLiAxDjAMBgNVBAsMBVIgJiBEMSIwIAYDVQQDDBladHMgU2VsZi1zaWdu
ZWQgQXV0aG9yaXR5MB4XDTE5MDEyMTA5NDgzNVoXDTI5MDExODA5NDgzNVowWTEL
MAkGA1UEBhMCQ04xETAPBgNVBAgMCFNoYW5nSGFpMRIwEAYDVQQKDAladHMgSW5j
LiAxDjAMBgNVBAsMBVIgJiBEMRMwEQYDVQQDDApBcGkgQ2xpZW50MIIBIjANBgkq
hkiG9w0BAQEFAAOCAQ8AMIIBCgKCAQEAu54uec10rAzXz+KltX/6io8pdlXdn1k3
/0JuCrpln4ntz+VTNusrPnr/9184LaOVsACNBE1Or5xfSLdf7oKoXuGZ6msoPcVU
+bRp/YfRKTO04rkZbU6RPDsMFNfXfN+yaFST/BbD8bifwX/DgIGtnF+Kq/wCPLfH
7Sv+MZl+AdVwRL0psej/pWzWvnmhX3SL3xjuwXrs4Zoc5OhhJF1tUHz0qpVEiK0+
aMzW/pDG6ZZgy3fn10C8EbL5sAi/YIIMWT5EAelHrv7c0JM15wz6TXRuSkz8QjF/
hLdZsJHjx0jgXnj6JJJEjv6SdUQvJI2cR2WZnEeWm9y8PzEuHl2DtwIDAQABo4H1
MIHyMAkGA1UdEwQCMAAwLAYJYIZIAYb4QgENBB8WHU9wZW5TU0wgR2VuZXJhdGVk
IENlcnRpZmljYXRlMB0GA1UdDgQWBBSwGjgwZ6vFb/U6rgdtkAW9hL8WCTCBlwYD
VR0jBIGPMIGMoX+kfTB7MQswCQYDVQQGEwJDTjERMA8GA1UECAwIU2hhbmdIYWkx
ETAPBgNVBAcMCFNoYW5nSGFpMRIwEAYDVQQKDAladHMgSW5jLiAxDjAMBgNVBAsM
BVIgJiBEMSIwIAYDVQQDDBladHMgU2VsZi1zaWduZWQgQXV0aG9yaXR5ggkA7/lH
GsHbFPYwDQYJKoZIhvcNAQELBQADggEBABQ+YS1l+19KrV2QKhf6kW7mc6dku6kH
5Rswus8R+n3M7us/1iVdM04/z+tVKQdtnn/O9vDhqpKLQ8M1O2yiM23Dp56n+Ev8
HrxlqeeBQJaZkJOnJwG3zpNemSXTPGfeBTqAjfu0kIKVJbhn5f8B9CnHzLEPxamN
tNiuuLkH9m1SQt9zBTNXkbuzuh/qXCS/yJOlGWE2cbBwCCwJhVgGWRyshqYmim6e
uD/8EKkwKzCc0L02IfItnzSX5Xl91oamqaxQBGAaa0ZoTCxADzb1/Ev3eQ1XtMLg
uYOmNeP4gIs/0t/kX3M6YOvCXO7dZWdvmS+AJVufk+xQjLla2tuM1Mg=
-----END CERTIFICATE-----
